target datalayout = "e-m:e-p270:32:32-p271:32:32-p272:64:64-i64:64-i128:128-f80:128-n8:16:32:64-S128"
target triple = "x86_64-pc-linux-gnu"

%struct._zval_struct = type { %union._zend_value, %union.anon, %union.anon.2 }
%union._zend_value = type { i64 }
%union.anon = type { i32 }
%union.anon.2 = type { i32 }
%struct._zend_array = type { %struct._zend_refcounted_h, %union.anon.4, i32, %union.anon.6, i32, i32, i32, i32, i64, ptr }
%struct._zend_refcounted_h = type { i32, %union.anon.3 }
%union.anon.3 = type { i32 }
%union.anon.4 = type { i32 }
%union.anon.6 = type { ptr }
%struct._sapi_globals_struct = type { ptr, %struct.sapi_request_info, %struct.sapi_headers_struct, i64, i8, i8, %struct.stat, ptr, ptr, ptr, i64, i32, i8, double, %struct._zend_array, %struct._zval_struct, %struct._zend_fcall_info_cache, %struct.sapi_request_parse_body_context }
%struct.sapi_request_info = type { ptr, ptr, ptr, i64, ptr, ptr, ptr, ptr, i8, i8, i8, ptr, ptr, ptr, ptr, ptr, ptr, ptr, i32, i32, ptr, i32 }
%struct.sapi_headers_struct = type { %struct._zend_llist, i32, i8, ptr, ptr }
%struct._zend_llist = type { ptr, ptr, i64, i64, ptr, i8, ptr }
%struct.stat = type { i64, i64, i64, i32, i32, i32, i32, i64, i64, i64, i64, %struct.timespec, %struct.timespec, %struct.timespec, [3 x i64] }
%struct.timespec = type { i64, i64 }
%struct._zend_fcall_info_cache = type { ptr, ptr, ptr, ptr, ptr }
%struct.sapi_request_parse_body_context = type { i8, [5 x %struct.anon.8] }
%struct.anon.8 = type { i8, i64 }
%struct._php_core_globals = type { i64, i8, i8, i8, i8, i8, i8, i8, i8, ptr, ptr, i64, i64, i64, ptr, ptr, ptr, ptr, ptr, i8, ptr, ptr, ptr, ptr, i64, ptr, ptr, ptr, ptr, ptr, ptr, ptr, %struct._arg_separators, ptr, %struct._zend_array, i16, i8, i8, %struct._zend_llist, [6 x %struct._zval_struct], i8, i8, i8, i8, i8, ptr, ptr, i64, [8 x i8], i8, i8, i8, i8, i8, i8, i32, i32, ptr, ptr, ptr, ptr, i64, i64, ptr, i64, ptr, ptr, i8, i8, i8, i8, i8, i8, i64, ptr, i64, i64 }
%struct._arg_separators = type { ptr, ptr }
%struct.anon.0 = type { i8, i8, %union.anon.1 }
%union.anon.1 = type { i16 }

@sapi_globals = external global %struct._sapi_globals_struct, align 8
@php_php_import_environment_variables = internal global ptr null, align 8
@core_globals = external global %struct._php_core_globals, align 8
@zend_known_strings = external global ptr, align 8

; Function Attrs: alwaysinline nounwind uwtable
define internal zeroext i8 @zval_get_type(ptr noundef %0) #17 {
  %2 = alloca ptr, align 8
  store ptr %0, ptr %2, align 8, !tbaa !9
  %3 = load ptr, ptr %2, align 8, !tbaa !9
  %4 = getelementptr inbounds nuw %struct._zval_struct, ptr %3, i32 0, i32 1
  %5 = getelementptr inbounds nuw %struct.anon.0, ptr %4, i32 0, i32 0
  %6 = load i8, ptr %5, align 8, !tbaa !11
  ret i8 %6
}

; Function Attrs: nounwind uwtable
define internal void @cgi_php_import_environment_variables(ptr noundef %0) #0 {
  %2 = alloca ptr, align 8
  %3 = alloca ptr, align 8
  store ptr %0, ptr %2, align 8, !tbaa !9
  %4 = load ptr, ptr getelementptr inbounds nuw (%struct._php_core_globals, ptr @core_globals, i32 0, i32 33), align 8, !tbaa !145
  %5 = icmp ne ptr %4, null
  br i1 %5, label %6, label %42

6:                                                ; preds = %1
  %7 = load ptr, ptr getelementptr inbounds nuw (%struct._php_core_globals, ptr @core_globals, i32 0, i32 33), align 8, !tbaa !145
  %8 = call ptr @strchr(ptr noundef %7, i32 noundef 69) #21
  %9 = icmp ne ptr %8, null
  br i1 %9, label %14, label %10

10:                                               ; preds = %6
  %11 = load ptr, ptr getelementptr inbounds nuw (%struct._php_core_globals, ptr @core_globals, i32 0, i32 33), align 8, !tbaa !145
  %12 = call ptr @strchr(ptr noundef %11, i32 noundef 101) #21
  %13 = icmp ne ptr %12, null
  br i1 %13, label %14, label %42

14:                                               ; preds = %10, %6
  %15 = call zeroext i8 @zval_get_type(ptr noundef getelementptr inbounds ([6 x %struct._zval_struct], ptr getelementptr inbounds nuw (%struct._php_core_globals, ptr @core_globals, i32 0, i32 39), i64 0, i64 4))
  %16 = zext i8 %15 to i32
  %17 = icmp ne i32 %16, 7
  br i1 %17, label %18, label %23

18:                                               ; preds = %14
  %19 = load ptr, ptr @zend_known_strings, align 8, !tbaa !146
  %20 = getelementptr inbounds ptr, ptr %19, i64 70
  %21 = load ptr, ptr %20, align 8, !tbaa !148
  %22 = call zeroext i1 @zend_is_auto_global(ptr noundef %21)
  br label %23

23:                                               ; preds = %18, %14
  %24 = call zeroext i8 @zval_get_type(ptr noundef getelementptr inbounds ([6 x %struct._zval_struct], ptr getelementptr inbounds nuw (%struct._php_core_globals, ptr @core_globals, i32 0, i32 39), i64 0, i64 4))
  %25 = zext i8 %24 to i32
  %26 = icmp eq i32 %25, 7
  br i1 %26, label %27, label %41

27:                                               ; preds = %23
  %28 = load ptr, ptr %2, align 8, !tbaa !9
  %29 = getelementptr inbounds nuw %struct._zval_struct, ptr %28, i32 0, i32 0
  %30 = load ptr, ptr %29, align 8, !tbaa !11
  %31 = load ptr, ptr getelementptr inbounds ([6 x %struct._zval_struct], ptr getelementptr inbounds nuw (%struct._php_core_globals, ptr @core_globals, i32 0, i32 39), i64 0, i64 4), align 8, !tbaa !11
  %32 = icmp ne ptr %30, %31
  br i1 %32, label %33, label %41

33:                                               ; preds = %27
  %34 = load ptr, ptr %2, align 8, !tbaa !9
  %35 = getelementptr inbounds nuw %struct._zval_struct, ptr %34, i32 0, i32 0
  %36 = load ptr, ptr %35, align 8, !tbaa !11
  call void @zend_array_destroy(ptr noundef %36)
  %37 = load ptr, ptr getelementptr inbounds ([6 x %struct._zval_struct], ptr getelementptr inbounds nuw (%struct._php_core_globals, ptr @core_globals, i32 0, i32 39), i64 0, i64 4), align 8, !tbaa !11
  %38 = call ptr @zend_array_dup(ptr noundef %37)
  %39 = load ptr, ptr %2, align 8, !tbaa !9
  %40 = getelementptr inbounds nuw %struct._zval_struct, ptr %39, i32 0, i32 0
  store ptr %38, ptr %40, align 8, !tbaa !11
  br label %51

41:                                               ; preds = %27, %23
  br label %42

42:                                               ; preds = %41, %10, %1
  %43 = load ptr, ptr @php_php_import_environment_variables, align 8, !tbaa !66
  %44 = load ptr, ptr %2, align 8, !tbaa !9
  call void %43(ptr noundef %44)
  %45 = call i32 @fcgi_is_fastcgi()
  %46 = icmp ne i32 %45, 0
  br i1 %46, label %47, label %51

47:                                               ; preds = %42
  call void @llvm.lifetime.start.p0(i64 8, ptr %3) #20
  %48 = load ptr, ptr @sapi_globals, align 8, !tbaa !46
  store ptr %48, ptr %3, align 8, !tbaa !61
  %49 = load ptr, ptr %3, align 8, !tbaa !61
  %50 = load ptr, ptr %2, align 8, !tbaa !9
  call void @fcgi_loadenv(ptr noundef %49, ptr noundef @cgi_php_load_env_var, ptr noundef %50)
  call void @llvm.lifetime.end.p0(i64 8, ptr %3) #20
  br label %51

51:                                               ; preds = %33, %47, %42
  ret void
}