; Function Attrs: nounwind uwtable
define internal void @cgi_php_import_environment_variables(ptr noundef %0) #0 {
  %2 = load ptr, ptr getelementptr inbounds nuw (i8, ptr @core_globals, i64 216), align 8, !tbaa !141
  %.not = icmp eq ptr %2, null
  br i1 %.not, label %20, label %3

3:                                                ; preds = %1
  %4 = tail call ptr @strchr(ptr noundef nonnull dereferenceable(1) %2, i32 noundef 69) #30
  %.not7 = icmp eq ptr %4, null
  br i1 %.not7, label %5, label %7

5:                                                ; preds = %3
  %6 = tail call ptr @strchr(ptr noundef nonnull dereferenceable(1) %2, i32 noundef 101) #30
  %.not8 = icmp eq ptr %6, null
  br i1 %.not8, label %20, label %7

7:                                                ; preds = %5, %3
  %8 = load i8, ptr getelementptr inbounds nuw (i8, ptr @core_globals, i64 416), align 8, !tbaa !4
  %.not9 = icmp eq i8 %8, 7
  br i1 %.not9, label %.thread, label %9

9:                                                ; preds = %7
  %10 = load ptr, ptr @zend_known_strings, align 8, !tbaa !142
  %11 = getelementptr inbounds nuw i8, ptr %10, i64 560
  %12 = load ptr, ptr %11, align 8, !tbaa !144
  %13 = tail call zeroext i1 @zend_is_auto_global(ptr noundef %12) #29
  %.pr = load i8, ptr getelementptr inbounds nuw (i8, ptr @core_globals, i64 416), align 8, !tbaa !4
  %14 = icmp eq i8 %.pr, 7
  br i1 %14, label %.thread, label %20

.thread:                                          ; preds = %7, %9
  %15 = load ptr, ptr %0, align 8, !tbaa !4
  %16 = load ptr, ptr getelementptr inbounds nuw (i8, ptr @core_globals, i64 408), align 8, !tbaa !4
  %.not10 = icmp eq ptr %15, %16
  br i1 %.not10, label %20, label %17

17:                                               ; preds = %.thread
  tail call void @zend_array_destroy(ptr noundef %15) #29
  %18 = load ptr, ptr getelementptr inbounds nuw (i8, ptr @core_globals, i64 408), align 8, !tbaa !4
  %19 = tail call ptr @zend_array_dup(ptr noundef %18) #29
  store ptr %19, ptr %0, align 8, !tbaa !4
  br label %25

20:                                               ; preds = %9, %.thread, %5, %1
  %21 = load ptr, ptr @php_php_import_environment_variables, align 8, !tbaa !97
  tail call void %21(ptr noundef %0) #29
  %22 = tail call i32 @fcgi_is_fastcgi() #29
  %.not11 = icmp eq i32 %22, 0
  br i1 %.not11, label %25, label %23

23:                                               ; preds = %20
  %24 = load ptr, ptr @sapi_globals, align 8, !tbaa !44
  tail call void @fcgi_loadenv(ptr noundef %24, ptr noundef nonnull @cgi_php_load_env_var, ptr noundef %0) #29
  br label %25

25:                                               ; preds = %23, %20, %17
  ret void
}